

Microchip Technology PIC LITE Macro Assembler V1.35 build -356382666 
                                                                                               Mon Dec  7 18:42:36 2015

Microchip Technology Omniscient Code Generator v1.35 (Free mode) build 201507080246
     1                           	processor	16F1826
     2                           	opt	pw 120
     3                           	opt	lm
     4                           	psect	idataBANK0,global,class=CODE,delta=2
     5                           	psect	nvBANK0,global,class=BANK0,space=1,delta=1
     6                           	psect	cinit,global,class=CODE,merge=1,delta=2
     7                           	psect	bssCOMMON,global,class=COMMON,space=1,delta=1
     8                           	psect	bssBANK0,global,class=BANK0,space=1,delta=1
     9                           	psect	dataBANK0,global,class=BANK0,space=1,delta=1
    10                           	psect	inittext,global,class=CODE,delta=2
    11                           	psect	cstackCOMMON,global,class=COMMON,space=1,delta=1
    12                           	psect	cstackBANK0,global,class=BANK0,space=1,delta=1
    13                           	psect	maintext,global,class=CODE,merge=1,split=1,delta=2
    14                           	psect	text1,local,class=CODE,merge=1,delta=2
    15                           	psect	text2,local,class=CODE,merge=1,delta=2
    16                           	psect	text3,local,class=CODE,merge=1,delta=2
    17                           	psect	text4,local,class=CODE,merge=1,delta=2
    18                           	psect	text5,local,class=CODE,merge=1,delta=2
    19                           	psect	text6,local,class=CODE,merge=1,delta=2
    20                           	psect	intentry,global,class=CODE,delta=2
    21                           	psect	text8,local,class=CODE,merge=1,delta=2
    22                           	dabs	1,0x7E,2
    23  0000                     	;# 
    24  0001                     	;# 
    25  0002                     	;# 
    26  0003                     	;# 
    27  0004                     	;# 
    28  0005                     	;# 
    29  0006                     	;# 
    30  0007                     	;# 
    31  0008                     	;# 
    32  0009                     	;# 
    33  000A                     	;# 
    34  000B                     	;# 
    35  000C                     	;# 
    36  000D                     	;# 
    37  0011                     	;# 
    38  0012                     	;# 
    39  0015                     	;# 
    40  0016                     	;# 
    41  0016                     	;# 
    42  0017                     	;# 
    43  0018                     	;# 
    44  0019                     	;# 
    45  001A                     	;# 
    46  001B                     	;# 
    47  001C                     	;# 
    48  001E                     	;# 
    49  001F                     	;# 
    50  008C                     	;# 
    51  008D                     	;# 
    52  0091                     	;# 
    53  0092                     	;# 
    54  0095                     	;# 
    55  0096                     	;# 
    56  0097                     	;# 
    57  0098                     	;# 
    58  0099                     	;# 
    59  009A                     	;# 
    60  009B                     	;# 
    61  009B                     	;# 
    62  009C                     	;# 
    63  009D                     	;# 
    64  009E                     	;# 
    65  010C                     	;# 
    66  010D                     	;# 
    67  0111                     	;# 
    68  0112                     	;# 
    69  0113                     	;# 
    70  0114                     	;# 
    71  0115                     	;# 
    72  0116                     	;# 
    73  0117                     	;# 
    74  0118                     	;# 
    75  0119                     	;# 
    76  011A                     	;# 
    77  011B                     	;# 
    78  011D                     	;# 
    79  011E                     	;# 
    80  018C                     	;# 
    81  018D                     	;# 
    82  0191                     	;# 
    83  0191                     	;# 
    84  0192                     	;# 
    85  0193                     	;# 
    86  0193                     	;# 
    87  0193                     	;# 
    88  0194                     	;# 
    89  0195                     	;# 
    90  0196                     	;# 
    91  0199                     	;# 
    92  019A                     	;# 
    93  019B                     	;# 
    94  019B                     	;# 
    95  019B                     	;# 
    96  019B                     	;# 
    97  019C                     	;# 
    98  019C                     	;# 
    99  019D                     	;# 
   100  019E                     	;# 
   101  019F                     	;# 
   102  020C                     	;# 
   103  020D                     	;# 
   104  0211                     	;# 
   105  0211                     	;# 
   106  0212                     	;# 
   107  0212                     	;# 
   108  0213                     	;# 
   109  0213                     	;# 
   110  0214                     	;# 
   111  0214                     	;# 
   112  0215                     	;# 
   113  0215                     	;# 
   114  0215                     	;# 
   115  0216                     	;# 
   116  0216                     	;# 
   117  0217                     	;# 
   118  0217                     	;# 
   119  0291                     	;# 
   120  0291                     	;# 
   121  0292                     	;# 
   122  0293                     	;# 
   123  0294                     	;# 
   124  0295                     	;# 
   125  0295                     	;# 
   126  0296                     	;# 
   127  0394                     	;# 
   128  0395                     	;# 
   129  0396                     	;# 
   130  039A                     	;# 
   131  039C                     	;# 
   132  039D                     	;# 
   133  039E                     	;# 
   134  039F                     	;# 
   135  0FE4                     	;# 
   136  0FE5                     	;# 
   137  0FE6                     	;# 
   138  0FE7                     	;# 
   139  0FE8                     	;# 
   140  0FE9                     	;# 
   141  0FEA                     	;# 
   142  0FEB                     	;# 
   143  0FED                     	;# 
   144  0FEE                     	;# 
   145  0FEF                     	;# 
   146  0000                     	;# 
   147  0001                     	;# 
   148  0002                     	;# 
   149  0003                     	;# 
   150  0004                     	;# 
   151  0005                     	;# 
   152  0006                     	;# 
   153  0007                     	;# 
   154  0008                     	;# 
   155  0009                     	;# 
   156  000A                     	;# 
   157  000B                     	;# 
   158  000C                     	;# 
   159  000D                     	;# 
   160  0011                     	;# 
   161  0012                     	;# 
   162  0015                     	;# 
   163  0016                     	;# 
   164  0016                     	;# 
   165  0017                     	;# 
   166  0018                     	;# 
   167  0019                     	;# 
   168  001A                     	;# 
   169  001B                     	;# 
   170  001C                     	;# 
   171  001E                     	;# 
   172  001F                     	;# 
   173  008C                     	;# 
   174  008D                     	;# 
   175  0091                     	;# 
   176  0092                     	;# 
   177  0095                     	;# 
   178  0096                     	;# 
   179  0097                     	;# 
   180  0098                     	;# 
   181  0099                     	;# 
   182  009A                     	;# 
   183  009B                     	;# 
   184  009B                     	;# 
   185  009C                     	;# 
   186  009D                     	;# 
   187  009E                     	;# 
   188  010C                     	;# 
   189  010D                     	;# 
   190  0111                     	;# 
   191  0112                     	;# 
   192  0113                     	;# 
   193  0114                     	;# 
   194  0115                     	;# 
   195  0116                     	;# 
   196  0117                     	;# 
   197  0118                     	;# 
   198  0119                     	;# 
   199  011A                     	;# 
   200  011B                     	;# 
   201  011D                     	;# 
   202  011E                     	;# 
   203  018C                     	;# 
   204  018D                     	;# 
   205  0191                     	;# 
   206  0191                     	;# 
   207  0192                     	;# 
   208  0193                     	;# 
   209  0193                     	;# 
   210  0193                     	;# 
   211  0194                     	;# 
   212  0195                     	;# 
   213  0196                     	;# 
   214  0199                     	;# 
   215  019A                     	;# 
   216  019B                     	;# 
   217  019B                     	;# 
   218  019B                     	;# 
   219  019B                     	;# 
   220  019C                     	;# 
   221  019C                     	;# 
   222  019D                     	;# 
   223  019E                     	;# 
   224  019F                     	;# 
   225  020C                     	;# 
   226  020D                     	;# 
   227  0211                     	;# 
   228  0211                     	;# 
   229  0212                     	;# 
   230  0212                     	;# 
   231  0213                     	;# 
   232  0213                     	;# 
   233  0214                     	;# 
   234  0214                     	;# 
   235  0215                     	;# 
   236  0215                     	;# 
   237  0215                     	;# 
   238  0216                     	;# 
   239  0216                     	;# 
   240  0217                     	;# 
   241  0217                     	;# 
   242  0291                     	;# 
   243  0291                     	;# 
   244  0292                     	;# 
   245  0293                     	;# 
   246  0294                     	;# 
   247  0295                     	;# 
   248  0295                     	;# 
   249  0296                     	;# 
   250  0394                     	;# 
   251  0395                     	;# 
   252  0396                     	;# 
   253  039A                     	;# 
   254  039C                     	;# 
   255  039D                     	;# 
   256  039E                     	;# 
   257  039F                     	;# 
   258  0FE4                     	;# 
   259  0FE5                     	;# 
   260  0FE6                     	;# 
   261  0FE7                     	;# 
   262  0FE8                     	;# 
   263  0FE9                     	;# 
   264  0FEA                     	;# 
   265  0FEB                     	;# 
   266  0FED                     	;# 
   267  0FEE                     	;# 
   268  0FEF                     	;# 
   269  0000                     	;# 
   270  0001                     	;# 
   271  0002                     	;# 
   272  0003                     	;# 
   273  0004                     	;# 
   274  0005                     	;# 
   275  0006                     	;# 
   276  0007                     	;# 
   277  0008                     	;# 
   278  0009                     	;# 
   279  000A                     	;# 
   280  000B                     	;# 
   281  000C                     	;# 
   282  000D                     	;# 
   283  0011                     	;# 
   284  0012                     	;# 
   285  0015                     	;# 
   286  0016                     	;# 
   287  0016                     	;# 
   288  0017                     	;# 
   289  0018                     	;# 
   290  0019                     	;# 
   291  001A                     	;# 
   292  001B                     	;# 
   293  001C                     	;# 
   294  001E                     	;# 
   295  001F                     	;# 
   296  008C                     	;# 
   297  008D                     	;# 
   298  0091                     	;# 
   299  0092                     	;# 
   300  0095                     	;# 
   301  0096                     	;# 
   302  0097                     	;# 
   303  0098                     	;# 
   304  0099                     	;# 
   305  009A                     	;# 
   306  009B                     	;# 
   307  009B                     	;# 
   308  009C                     	;# 
   309  009D                     	;# 
   310  009E                     	;# 
   311  010C                     	;# 
   312  010D                     	;# 
   313  0111                     	;# 
   314  0112                     	;# 
   315  0113                     	;# 
   316  0114                     	;# 
   317  0115                     	;# 
   318  0116                     	;# 
   319  0117                     	;# 
   320  0118                     	;# 
   321  0119                     	;# 
   322  011A                     	;# 
   323  011B                     	;# 
   324  011D                     	;# 
   325  011E                     	;# 
   326  018C                     	;# 
   327  018D                     	;# 
   328  0191                     	;# 
   329  0191                     	;# 
   330  0192                     	;# 
   331  0193                     	;# 
   332  0193                     	;# 
   333  0193                     	;# 
   334  0194                     	;# 
   335  0195                     	;# 
   336  0196                     	;# 
   337  0199                     	;# 
   338  019A                     	;# 
   339  019B                     	;# 
   340  019B                     	;# 
   341  019B                     	;# 
   342  019B                     	;# 
   343  019C                     	;# 
   344  019C                     	;# 
   345  019D                     	;# 
   346  019E                     	;# 
   347  019F                     	;# 
   348  020C                     	;# 
   349  020D                     	;# 
   350  0211                     	;# 
   351  0211                     	;# 
   352  0212                     	;# 
   353  0212                     	;# 
   354  0213                     	;# 
   355  0213                     	;# 
   356  0214                     	;# 
   357  0214                     	;# 
   358  0215                     	;# 
   359  0215                     	;# 
   360  0215                     	;# 
   361  0216                     	;# 
   362  0216                     	;# 
   363  0217                     	;# 
   364  0217                     	;# 
   365  0291                     	;# 
   366  0291                     	;# 
   367  0292                     	;# 
   368  0293                     	;# 
   369  0294                     	;# 
   370  0295                     	;# 
   371  0295                     	;# 
   372  0296                     	;# 
   373  0394                     	;# 
   374  0395                     	;# 
   375  0396                     	;# 
   376  039A                     	;# 
   377  039C                     	;# 
   378  039D                     	;# 
   379  039E                     	;# 
   380  039F                     	;# 
   381  0FE4                     	;# 
   382  0FE5                     	;# 
   383  0FE6                     	;# 
   384  0FE7                     	;# 
   385  0FE8                     	;# 
   386  0FE9                     	;# 
   387  0FEA                     	;# 
   388  0FEB                     	;# 
   389  0FED                     	;# 
   390  0FEE                     	;# 
   391  0FEF                     	;# 
   392  0000                     	;# 
   393  0001                     	;# 
   394  0002                     	;# 
   395  0003                     	;# 
   396  0004                     	;# 
   397  0005                     	;# 
   398  0006                     	;# 
   399  0007                     	;# 
   400  0008                     	;# 
   401  0009                     	;# 
   402  000A                     	;# 
   403  000B                     	;# 
   404  000C                     	;# 
   405  000D                     	;# 
   406  0011                     	;# 
   407  0012                     	;# 
   408  0015                     	;# 
   409  0016                     	;# 
   410  0016                     	;# 
   411  0017                     	;# 
   412  0018                     	;# 
   413  0019                     	;# 
   414  001A                     	;# 
   415  001B                     	;# 
   416  001C                     	;# 
   417  001E                     	;# 
   418  001F                     	;# 
   419  008C                     	;# 
   420  008D                     	;# 
   421  0091                     	;# 
   422  0092                     	;# 
   423  0095                     	;# 
   424  0096                     	;# 
   425  0097                     	;# 
   426  0098                     	;# 
   427  0099                     	;# 
   428  009A                     	;# 
   429  009B                     	;# 
   430  009B                     	;# 
   431  009C                     	;# 
   432  009D                     	;# 
   433  009E                     	;# 
   434  010C                     	;# 
   435  010D                     	;# 
   436  0111                     	;# 
   437  0112                     	;# 
   438  0113                     	;# 
   439  0114                     	;# 
   440  0115                     	;# 
   441  0116                     	;# 
   442  0117                     	;# 
   443  0118                     	;# 
   444  0119                     	;# 
   445  011A                     	;# 
   446  011B                     	;# 
   447  011D                     	;# 
   448  011E                     	;# 
   449  018C                     	;# 
   450  018D                     	;# 
   451  0191                     	;# 
   452  0191                     	;# 
   453  0192                     	;# 
   454  0193                     	;# 
   455  0193                     	;# 
   456  0193                     	;# 
   457  0194                     	;# 
   458  0195                     	;# 
   459  0196                     	;# 
   460  0199                     	;# 
   461  019A                     	;# 
   462  019B                     	;# 
   463  019B                     	;# 
   464  019B                     	;# 
   465  019B                     	;# 
   466  019C                     	;# 
   467  019C                     	;# 
   468  019D                     	;# 
   469  019E                     	;# 
   470  019F                     	;# 
   471  020C                     	;# 
   472  020D                     	;# 
   473  0211                     	;# 
   474  0211                     	;# 
   475  0212                     	;# 
   476  0212                     	;# 
   477  0213                     	;# 
   478  0213                     	;# 
   479  0214                     	;# 
   480  0214                     	;# 
   481  0215                     	;# 
   482  0215                     	;# 
   483  0215                     	;# 
   484  0216                     	;# 
   485  0216                     	;# 
   486  0217                     	;# 
   487  0217                     	;# 
   488  0291                     	;# 
   489  0291                     	;# 
   490  0292                     	;# 
   491  0293                     	;# 
   492  0294                     	;# 
   493  0295                     	;# 
   494  0295                     	;# 
   495  0296                     	;# 
   496  0394                     	;# 
   497  0395                     	;# 
   498  0396                     	;# 
   499  039A                     	;# 
   500  039C                     	;# 
   501  039D                     	;# 
   502  039E                     	;# 
   503  039F                     	;# 
   504  0FE4                     	;# 
   505  0FE5                     	;# 
   506  0FE6                     	;# 
   507  0FE7                     	;# 
   508  0FE8                     	;# 
   509  0FE9                     	;# 
   510  0FEA                     	;# 
   511  0FEB                     	;# 
   512  0FED                     	;# 
   513  0FEE                     	;# 
   514  0FEF                     	;# 
   515  0000                     	;# 
   516  0001                     	;# 
   517  0002                     	;# 
   518  0003                     	;# 
   519  0004                     	;# 
   520  0005                     	;# 
   521  0006                     	;# 
   522  0007                     	;# 
   523  0008                     	;# 
   524  0009                     	;# 
   525  000A                     	;# 
   526  000B                     	;# 
   527  000C                     	;# 
   528  000D                     	;# 
   529  0011                     	;# 
   530  0012                     	;# 
   531  0015                     	;# 
   532  0016                     	;# 
   533  0016                     	;# 
   534  0017                     	;# 
   535  0018                     	;# 
   536  0019                     	;# 
   537  001A                     	;# 
   538  001B                     	;# 
   539  001C                     	;# 
   540  001E                     	;# 
   541  001F                     	;# 
   542  008C                     	;# 
   543  008D                     	;# 
   544  0091                     	;# 
   545  0092                     	;# 
   546  0095                     	;# 
   547  0096                     	;# 
   548  0097                     	;# 
   549  0098                     	;# 
   550  0099                     	;# 
   551  009A                     	;# 
   552  009B                     	;# 
   553  009B                     	;# 
   554  009C                     	;# 
   555  009D                     	;# 
   556  009E                     	;# 
   557  010C                     	;# 
   558  010D                     	;# 
   559  0111                     	;# 
   560  0112                     	;# 
   561  0113                     	;# 
   562  0114                     	;# 
   563  0115                     	;# 
   564  0116                     	;# 
   565  0117                     	;# 
   566  0118                     	;# 
   567  0119                     	;# 
   568  011A                     	;# 
   569  011B                     	;# 
   570  011D                     	;# 
   571  011E                     	;# 
   572  018C                     	;# 
   573  018D                     	;# 
   574  0191                     	;# 
   575  0191                     	;# 
   576  0192                     	;# 
   577  0193                     	;# 
   578  0193                     	;# 
   579  0193                     	;# 
   580  0194                     	;# 
   581  0195                     	;# 
   582  0196                     	;# 
   583  0199                     	;# 
   584  019A                     	;# 
   585  019B                     	;# 
   586  019B                     	;# 
   587  019B                     	;# 
   588  019B                     	;# 
   589  019C                     	;# 
   590  019C                     	;# 
   591  019D                     	;# 
   592  019E                     	;# 
   593  019F                     	;# 
   594  020C                     	;# 
   595  020D                     	;# 
   596  0211                     	;# 
   597  0211                     	;# 
   598  0212                     	;# 
   599  0212                     	;# 
   600  0213                     	;# 
   601  0213                     	;# 
   602  0214                     	;# 
   603  0214                     	;# 
   604  0215                     	;# 
   605  0215                     	;# 
   606  0215                     	;# 
   607  0216                     	;# 
   608  0216                     	;# 
   609  0217                     	;# 
   610  0217                     	;# 
   611  0291                     	;# 
   612  0291                     	;# 
   613  0292                     	;# 
   614  0293                     	;# 
   615  0294                     	;# 
   616  0295                     	;# 
   617  0295                     	;# 
   618  0296                     	;# 
   619  0394                     	;# 
   620  0395                     	;# 
   621  0396                     	;# 
   622  039A                     	;# 
   623  039C                     	;# 
   624  039D                     	;# 
   625  039E                     	;# 
   626  039F                     	;# 
   627  0FE4                     	;# 
   628  0FE5                     	;# 
   629  0FE6                     	;# 
   630  0FE7                     	;# 
   631  0FE8                     	;# 
   632  0FE9                     	;# 
   633  0FEA                     	;# 
   634  0FEB                     	;# 
   635  0FED                     	;# 
   636  0FEE                     	;# 
   637  0FEF                     	;# 
   638                           
   639                           	psect	idataBANK0
   640  012C                     __pidataBANK0:	
   641                           
   642                           ;initializer for _LedTable
   643  012C  343F               	retlw	63
   644  012D  3406               	retlw	6
   645  012E  345B               	retlw	91
   646  012F  344F               	retlw	79
   647  0130  3466               	retlw	102
   648  0131  346D               	retlw	109
   649  0132  347D               	retlw	125
   650  0133  3407               	retlw	7
   651  0134  347F               	retlw	127
   652  0135  346F               	retlw	111
   653  0136  3477               	retlw	119
   654  0137  347C               	retlw	124
   655  0138  3439               	retlw	57
   656  0139  345E               	retlw	94
   657  013A  3479               	retlw	121
   658  013B  3471               	retlw	113
   659                           
   660                           	psect	nvBANK0
   661  0037                     __pnvBANK0:	
   662  0037                     _timer0ReloadVal:	
   663  0037                     	ds	1
   664  000B                     _INTCONbits	set	11
   665  000D                     _PORTB	set	13
   666  0015                     _TMR0	set	21
   667  0062                     _RA2	set	98
   668  0063                     _RA3	set	99
   669  0095                     _OPTION_REG	set	149
   670  0095                     _OPTION_REGbits	set	149
   671  0099                     _OSCCON	set	153
   672  009A                     _OSCSTAT	set	154
   673  0098                     _OSCTUNE	set	152
   674  008C                     _TRISA	set	140
   675  008D                     _TRISB	set	141
   676  011D                     _APFCON0	set	285
   677  011E                     _APFCON1	set	286
   678  010C                     _LATA	set	268
   679  010D                     _LATB	set	269
   680  0863                     _LATA3	set	2147
   681  0864                     _LATA4	set	2148
   682  018C                     _ANSELA	set	396
   683  018D                     _ANSELB	set	397
   684  020C                     _WPUA	set	524
   685  020D                     _WPUB	set	525
   686                           
   687                           ; #config settings
   688  0000                     
   689                           	psect	cinit
   690  0013                     start_initialization:	
   691  0013                     __initialization:	
   692                           
   693                           ; Clear objects allocated to COMMON
   694  0013  01FA               	clrf	__pbssCOMMON& (0+127)
   695                           
   696                           ; Clear objects allocated to BANK0
   697  0014  01B0               	clrf	__pbssBANK0& (0+127)
   698  0015  01B1               	clrf	(__pbssBANK0+1)& (0+127)
   699  0016  01B2               	clrf	(__pbssBANK0+2)& (0+127)
   700  0017  01B3               	clrf	(__pbssBANK0+3)& (0+127)
   701                           
   702                           ; Initialize objects allocated to BANK0
   703  0018  302C               	movlw	low __pidataBANK0
   704  0019  0084               	movwf	4
   705  001A  3081               	movlw	(high __pidataBANK0)| (0+128)
   706  001B  0085               	movwf	5
   707  001C  3020               	movlw	low __pdataBANK0
   708  001D  0086               	movwf	6
   709  001E  3000               	movlw	high __pdataBANK0
   710  001F  0087               	movwf	7
   711  0020  3010               	movlw	16
   712  0021  214B               	fcall	init_ram
   713  0022                     end_of_initialization:	
   714                           ;End of C runtime variable initialization code
   715                           
   716  0022                     __end_of__initialization:	
   717  0022  107E               	bcf	int$flags,0	;clear compiler interrupt flag (level 1)
   718  0023  0020               	movlb	0
   719  0024  2825               	ljmp	_main	;jump to C main() function
   720                           
   721                           	psect	bssCOMMON
   722  007A                     __pbssCOMMON:	
   723  007A                     _Rand:	
   724  007A                     	ds	1
   725                           
   726                           	psect	bssBANK0
   727  0030                     __pbssBANK0:	
   728  0030                     _Dec:	
   729  0030                     	ds	1
   730  0031                     _Rand_Disp:	
   731  0031                     	ds	1
   732  0032                     _Sleep:	
   733  0032                     	ds	1
   734  0033                     _Uni:	
   735  0033                     	ds	1
   736                           
   737                           	psect	dataBANK0
   738  0020                     __pdataBANK0:	
   739  0020                     _LedTable:	
   740  0020                     	ds	16
   741                           
   742                           	psect	inittext
   743  014B                     init_ram:	
   744  014B  00FE               	movwf	126
   745  014C                     initloop:	
   746  014C  0012               	moviw fsr0++
   747  014D  001E               	movwi fsr1++
   748  014E  0BFE               	decfsz	126,f
   749  014F  294C               	goto	initloop
   750  0150  3400               	retlw	0
   751                           
   752                           	psect	cstackCOMMON
   753  0070                     __pcstackCOMMON:	
   754  0070                     ?_OSCILLATOR_Initialize:	
   755  0070                     ?_TMR0_Initialize:	
   756                           ; 0 bytes @ 0x0
   757                           
   758  0070                     ?_TMR0_ISR:	
   759                           ; 0 bytes @ 0x0
   760                           
   761  0070                     ??_TMR0_ISR:	
   762                           ; 0 bytes @ 0x0
   763                           
   764  0070                     ?_PIN_MANAGER_Initialize:	
   765                           ; 0 bytes @ 0x0
   766                           
   767  0070                     ?_INTERRUPT_InterruptManager:	
   768                           ; 0 bytes @ 0x0
   769                           
   770  0070                     ??_INTERRUPT_InterruptManager:	
   771                           ; 0 bytes @ 0x0
   772                           
   773  0070                     ?_SYSTEM_Initialize:	
   774                           ; 0 bytes @ 0x0
   775                           
   776  0070                     ?_main:	
   777                           ; 0 bytes @ 0x0
   778                           
   779                           
   780                           ; 0 bytes @ 0x0
   781  0070                     	ds	1
   782  0071                     ??_OSCILLATOR_Initialize:	
   783  0071                     ??_TMR0_Initialize:	
   784                           ; 0 bytes @ 0x1
   785                           
   786  0071                     ??_PIN_MANAGER_Initialize:	
   787                           ; 0 bytes @ 0x1
   788                           
   789  0071                     ?___awdiv:	
   790                           ; 0 bytes @ 0x1
   791                           
   792  0071                     ?___awmod:	
   793                           ; 2 bytes @ 0x1
   794                           
   795  0071                     ___awdiv@divisor:	
   796                           ; 2 bytes @ 0x1
   797                           
   798  0071                     ___awmod@divisor:	
   799                           ; 2 bytes @ 0x1
   800                           
   801                           
   802                           ; 2 bytes @ 0x1
   803  0071                     	ds	1
   804  0072                     ??_SYSTEM_Initialize:	
   805                           
   806                           ; 0 bytes @ 0x2
   807  0072                     	ds	1
   808  0073                     ___awdiv@dividend:	
   809  0073                     ___awmod@dividend:	
   810                           ; 2 bytes @ 0x3
   811                           
   812                           
   813                           ; 2 bytes @ 0x3
   814  0073                     	ds	2
   815  0075                     ??___awdiv:	
   816  0075                     ??___awmod:	
   817                           ; 0 bytes @ 0x5
   818                           
   819                           
   820                           ; 0 bytes @ 0x5
   821  0075                     	ds	1
   822  0076                     ___awdiv@counter:	
   823  0076                     ___awmod@counter:	
   824                           ; 1 bytes @ 0x6
   825                           
   826                           
   827                           ; 1 bytes @ 0x6
   828  0076                     	ds	1
   829  0077                     ___awdiv@sign:	
   830  0077                     ___awmod@sign:	
   831                           ; 1 bytes @ 0x7
   832                           
   833                           
   834                           ; 1 bytes @ 0x7
   835  0077                     	ds	1
   836  0078                     ___awdiv@quotient:	
   837                           
   838                           ; 2 bytes @ 0x8
   839  0078                     	ds	2
   840                           
   841                           	psect	cstackBANK0
   842  0034                     __pcstackBANK0:	
   843  0034                     ??_main:	
   844                           
   845                           ; 0 bytes @ 0x0
   846  0034                     	ds	3
   847                           
   848                           	psect	maintext
   849  0025                     __pmaintext:	
   850 ;;
   851 ;;Main: autosize = 0, tempsize = 3, incstack = 0, save=0
   852 ;;
   853 ;; *************** function _main *****************
   854 ;; Defined at:
   855 ;;		line 60 in file "main.c"
   856 ;; Parameters:    Size  Location     Type
   857 ;;		None
   858 ;; Auto vars:     Size  Location     Type
   859 ;;		None
   860 ;; Return value:  Size  Location     Type
   861 ;;		None               void
   862 ;; Registers used:
   863 ;;		wreg, fsr1l, fsr1h, status,2, status,0, pclath, cstack
   864 ;; Tracked objects:
   865 ;;		On entry : B1F/0
   866 ;;		On exit  : 0/0
   867 ;;		Unchanged: 0/0
   868 ;; Data sizes:     COMMON   BANK0   BANK1   BANK2
   869 ;;      Params:         0       0       0       0
   870 ;;      Locals:         0       0       0       0
   871 ;;      Temps:          0       3       0       0
   872 ;;      Totals:         0       3       0       0
   873 ;;Total ram usage:        3 bytes
   874 ;; Hardware stack levels required when called:    4
   875 ;; This function calls:
   876 ;;		_SYSTEM_Initialize
   877 ;;		___awdiv
   878 ;;		___awmod
   879 ;; This function is called by:
   880 ;;		Startup code after reset
   881 ;; This function uses a non-reentrant model
   882 ;;
   883                           
   884                           
   885                           ;psect for function _main
   886  0025                     _main:	
   887                           
   888                           ;main.c: 63: SYSTEM_Initialize();
   889                           
   890                           ;incstack = 0
   891                           ; Regs used in _main: [wreg+fsr1l+fsr1h+status,2+status,0+pclath+cstack]
   892  0025  215C               	fcall	_SYSTEM_Initialize
   893                           
   894                           ;main.c: 72: (INTCONbits.PEIE = 1);
   895  0026  170B               	bsf	11,6	;volatile
   896                           
   897                           ;main.c: 80: do { LATA3 = 1; } while(0);
   898  0027  0022               	movlb	2	; select bank2
   899  0028  158C               	bsf	12,3	;volatile
   900                           
   901                           ;main.c: 81: do { LATA4 = 0; } while(0);
   902  0029  120C               	bcf	12,4	;volatile
   903  002A                     l942:	
   904                           ;main.c: 83: while (1) {
   905                           
   906                           
   907                           ;main.c: 86: if(RA2){
   908  002A  0020               	movlb	0	; select bank0
   909  002B  1D0C               	btfss	12,2	;volatile
   910  002C  2853               	goto	l950
   911                           
   912                           ;main.c: 87: Rand_Disp = Rand;
   913  002D  087A               	movf	_Rand,w
   914  002E  00B4               	movwf	??_main
   915  002F  0834               	movf	??_main,w
   916  0030  00B1               	movwf	_Rand_Disp
   917                           
   918                           ;main.c: 88: Uni = Rand_Disp % 10;
   919  0031  300A               	movlw	10
   920  0032  00F1               	movwf	___awmod@divisor
   921  0033  3000               	movlw	0
   922  0034  00F2               	movwf	___awmod@divisor+1
   923  0035  0831               	movf	_Rand_Disp,w
   924  0036  00B4               	movwf	??_main
   925  0037  01B5               	clrf	??_main+1
   926  0038  0834               	movf	??_main,w
   927  0039  00F3               	movwf	___awmod@dividend
   928  003A  0835               	movf	??_main+1,w
   929  003B  00F4               	movwf	___awmod@dividend+1
   930  003C  20CF               	fcall	___awmod
   931  003D  0871               	movf	?___awmod,w
   932  003E  0020               	movlb	0	; select bank0
   933  003F  00B6               	movwf	??_main+2
   934  0040  0836               	movf	??_main+2,w
   935  0041  00B3               	movwf	_Uni
   936                           
   937                           ;main.c: 89: Dec = Rand_Disp / 10;
   938  0042  300A               	movlw	10
   939  0043  00F1               	movwf	___awdiv@divisor
   940  0044  3000               	movlw	0
   941  0045  00F2               	movwf	___awdiv@divisor+1
   942  0046  0831               	movf	_Rand_Disp,w
   943  0047  00B4               	movwf	??_main
   944  0048  01B5               	clrf	??_main+1
   945  0049  0834               	movf	??_main,w
   946  004A  00F3               	movwf	___awdiv@dividend
   947  004B  0835               	movf	??_main+1,w
   948  004C  00F4               	movwf	___awdiv@dividend+1
   949  004D  207E               	fcall	___awdiv
   950  004E  0871               	movf	?___awdiv,w
   951  004F  0020               	movlb	0	; select bank0
   952  0050  00B6               	movwf	??_main+2
   953  0051  0836               	movf	??_main+2,w
   954  0052  00B0               	movwf	_Dec
   955  0053                     l950:	
   956                           
   957                           ;main.c: 90: }
   958                           ;main.c: 94: if(!RA3)
   959  0053  198C               	btfsc	12,3	;volatile
   960  0054  285C               	goto	l960
   961                           
   962                           ;main.c: 95: {
   963                           ;main.c: 96: PORTB = 0;
   964  0055  018D               	clrf	13	;volatile
   965                           
   966                           ;main.c: 97: do { LATA3 = 1; } while(0);
   967  0056  0022               	movlb	2	; select bank2
   968  0057  158C               	bsf	12,3	;volatile
   969                           
   970                           ;main.c: 98: do { LATA4 = 0; } while(0);
   971  0058  120C               	bcf	12,4	;volatile
   972                           
   973                           ;main.c: 100: PORTB = LedTable[Uni];
   974  0059  0020               	movlb	0	; select bank0
   975  005A  0833               	movf	_Uni,w
   976  005B  2862               	goto	L1
   977  005C                     l960:	
   978                           ;main.c: 102: }else {
   979                           
   980                           
   981                           ;main.c: 103: PORTB = 0;
   982  005C  018D               	clrf	13	;volatile
   983                           
   984                           ;main.c: 104: do { LATA3 = 0; } while(0);
   985  005D  0022               	movlb	2	; select bank2
   986  005E  118C               	bcf	12,3	;volatile
   987                           
   988                           ;main.c: 105: do { LATA4 = 1; } while(0);
   989  005F  160C               	bsf	12,4	;volatile
   990                           
   991                           ;main.c: 107: PORTB = LedTable[Dec];
   992  0060  0020               	movlb	0	; select bank0
   993  0061  0830               	movf	_Dec,w
   994  0062                     L1:	
   995  0062  3E20               	addlw	(low (_LedTable| 0))& (0+255)
   996  0063  0086               	movwf	6
   997  0064  0187               	clrf	7
   998  0065  0801               	movf	1,w
   999  0066  008D               	movwf	13	;volatile
  1000                           
  1001                           ;main.c: 109: }
  1002                           ;main.c: 113: Sleep++;
  1003  0067  3001               	movlw	1
  1004  0068  00B4               	movwf	??_main
  1005  0069  0834               	movf	??_main,w
  1006  006A  07B2               	addwf	_Sleep,f
  1007                           
  1008                           ;main.c: 114: if(Sleep == 10){
  1009  006B  300A               	movlw	10
  1010  006C  0632               	xorwf	_Sleep,w
  1011  006D  1D03               	btfss	3,2
  1012  006E  2874               	goto	l978
  1013                           
  1014                           ;main.c: 115: PORTB = 0;
  1015  006F  018D               	clrf	13	;volatile
  1016                           
  1017                           ;main.c: 116: do { LATA3 = 0; } while(0);
  1018  0070  0022               	movlb	2	; select bank2
  1019  0071  118C               	bcf	12,3	;volatile
  1020                           
  1021                           ;main.c: 117: do { LATA4 = 0; } while(0);
  1022  0072  120C               	bcf	12,4	;volatile
  1023  0073  0063               	sleep	;# 
  1024  0074                     l978:	
  1025                           
  1026                           ;main.c: 119: }
  1027                           ;main.c: 124: if(Rand == 30)
  1028  0074  301E               	movlw	30
  1029  0075  067A               	xorwf	_Rand,w
  1030  0076  1903               	btfsc	3,2
  1031                           
  1032                           ;main.c: 125: Rand = 0;
  1033  0077  01FA               	clrf	_Rand
  1034                           
  1035                           ;main.c: 126: Rand++;
  1036  0078  3001               	movlw	1
  1037  0079  0020               	movlb	0	; select bank0
  1038  007A  00B4               	movwf	??_main
  1039  007B  0834               	movf	??_main,w
  1040  007C  07FA               	addwf	_Rand,f
  1041  007D  282A               	goto	l942
  1042  007E                     __end_of_main:	
  1043                           
  1044                           	psect	text1
  1045  00CF                     __ptext1:	
  1046 ;; *************** function ___awmod *****************
  1047 ;; Defined at:
  1048 ;;		line 6 in file "/Applications/microchip/xc8/v1.35/sources/common/awmod.c"
  1049 ;; Parameters:    Size  Location     Type
  1050 ;;  divisor         2    1[COMMON] int 
  1051 ;;  dividend        2    3[COMMON] int 
  1052 ;; Auto vars:     Size  Location     Type
  1053 ;;  sign            1    7[COMMON] unsigned char 
  1054 ;;  counter         1    6[COMMON] unsigned char 
  1055 ;; Return value:  Size  Location     Type
  1056 ;;                  2    1[COMMON] int 
  1057 ;; Registers used:
  1058 ;;		wreg, status,2, status,0
  1059 ;; Tracked objects:
  1060 ;;		On entry : 0/0
  1061 ;;		On exit  : 0/0
  1062 ;;		Unchanged: 0/0
  1063 ;; Data sizes:     COMMON   BANK0   BANK1   BANK2
  1064 ;;      Params:         4       0       0       0
  1065 ;;      Locals:         2       0       0       0
  1066 ;;      Temps:          1       0       0       0
  1067 ;;      Totals:         7       0       0       0
  1068 ;;Total ram usage:        7 bytes
  1069 ;; Hardware stack levels used:    1
  1070 ;; Hardware stack levels required when called:    2
  1071 ;; This function calls:
  1072 ;;		Nothing
  1073 ;; This function is called by:
  1074 ;;		_main
  1075 ;; This function uses a non-reentrant model
  1076 ;;
  1077                           
  1078                           
  1079                           ;psect for function ___awmod
  1080  00CF                     ___awmod:	
  1081                           
  1082                           ;incstack = 0
  1083                           ; Regs used in ___awmod: [wreg+status,2+status,0]
  1084  00CF  01F7               	clrf	___awmod@sign
  1085  00D0  1FF4               	btfss	___awmod@dividend+1,7
  1086  00D1  28D9               	goto	l846
  1087  00D2  09F3               	comf	___awmod@dividend,f
  1088  00D3  09F4               	comf	___awmod@dividend+1,f
  1089  00D4  0AF3               	incf	___awmod@dividend,f
  1090  00D5  1903               	skipnz
  1091  00D6  0AF4               	incf	___awmod@dividend+1,f
  1092  00D7  01F7               	clrf	___awmod@sign
  1093  00D8  0AF7               	incf	___awmod@sign,f
  1094  00D9                     l846:	
  1095  00D9  1FF2               	btfss	___awmod@divisor+1,7
  1096  00DA  28E0               	goto	l850
  1097  00DB  09F1               	comf	___awmod@divisor,f
  1098  00DC  09F2               	comf	___awmod@divisor+1,f
  1099  00DD  0AF1               	incf	___awmod@divisor,f
  1100  00DE  1903               	skipnz
  1101  00DF  0AF2               	incf	___awmod@divisor+1,f
  1102  00E0                     l850:	
  1103  00E0  0871               	movf	___awmod@divisor,w
  1104  00E1  0472               	iorwf	___awmod@divisor+1,w
  1105  00E2  1903               	btfsc	3,2
  1106  00E3  2907               	goto	l868
  1107  00E4  01F6               	clrf	___awmod@counter
  1108  00E5  0AF6               	incf	___awmod@counter,f
  1109  00E6                     l858:	
  1110  00E6  1BF2               	btfsc	___awmod@divisor+1,7
  1111  00E7  28F2               	goto	l860
  1112  00E8  3001               	movlw	1
  1113  00E9                     u395:	
  1114  00E9  35F1               	lslf	___awmod@divisor,f
  1115  00EA  0DF2               	rlf	___awmod@divisor+1,f
  1116  00EB  0B89               	decfsz	9,f
  1117  00EC  28E9               	goto	u395
  1118  00ED  3001               	movlw	1
  1119  00EE  00F5               	movwf	??___awmod
  1120  00EF  0875               	movf	??___awmod,w
  1121  00F0  07F6               	addwf	___awmod@counter,f
  1122  00F1  28E6               	goto	l858
  1123  00F2                     l860:	
  1124  00F2  0872               	movf	___awmod@divisor+1,w
  1125  00F3  0274               	subwf	___awmod@dividend+1,w
  1126  00F4  1D03               	skipz
  1127  00F5  28F8               	goto	u415
  1128  00F6  0871               	movf	___awmod@divisor,w
  1129  00F7  0273               	subwf	___awmod@dividend,w
  1130  00F8                     u415:	
  1131  00F8  1C03               	skipc
  1132  00F9  28FE               	goto	l864
  1133  00FA  0871               	movf	___awmod@divisor,w
  1134  00FB  02F3               	subwf	___awmod@dividend,f
  1135  00FC  0872               	movf	___awmod@divisor+1,w
  1136  00FD  3BF4               	subwfb	___awmod@dividend+1,f
  1137  00FE                     l864:	
  1138  00FE  3001               	movlw	1
  1139  00FF                     u425:	
  1140  00FF  36F2               	lsrf	___awmod@divisor+1,f
  1141  0100  0CF1               	rrf	___awmod@divisor,f
  1142  0101  0B89               	decfsz	9,f
  1143  0102  28FF               	goto	u425
  1144  0103  3001               	movlw	1
  1145  0104  02F6               	subwf	___awmod@counter,f
  1146  0105  1D03               	btfss	3,2
  1147  0106  28F2               	goto	l860
  1148  0107                     l868:	
  1149  0107  0877               	movf	___awmod@sign,w
  1150  0108  1903               	btfsc	3,2
  1151  0109  290F               	goto	l872
  1152  010A  09F3               	comf	___awmod@dividend,f
  1153  010B  09F4               	comf	___awmod@dividend+1,f
  1154  010C  0AF3               	incf	___awmod@dividend,f
  1155  010D  1903               	skipnz
  1156  010E  0AF4               	incf	___awmod@dividend+1,f
  1157  010F                     l872:	
  1158  010F  0874               	movf	___awmod@dividend+1,w
  1159  0110  00F2               	movwf	?___awmod+1
  1160  0111  0873               	movf	___awmod@dividend,w
  1161  0112  00F1               	movwf	?___awmod
  1162  0113  0008               	return
  1163  0114                     __end_of___awmod:	
  1164                           
  1165                           	psect	text2
  1166  007E                     __ptext2:	
  1167 ;; *************** function ___awdiv *****************
  1168 ;; Defined at:
  1169 ;;		line 6 in file "/Applications/microchip/xc8/v1.35/sources/common/awdiv.c"
  1170 ;; Parameters:    Size  Location     Type
  1171 ;;  divisor         2    1[COMMON] int 
  1172 ;;  dividend        2    3[COMMON] int 
  1173 ;; Auto vars:     Size  Location     Type
  1174 ;;  quotient        2    8[COMMON] int 
  1175 ;;  sign            1    7[COMMON] unsigned char 
  1176 ;;  counter         1    6[COMMON] unsigned char 
  1177 ;; Return value:  Size  Location     Type
  1178 ;;                  2    1[COMMON] int 
  1179 ;; Registers used:
  1180 ;;		wreg, status,2, status,0
  1181 ;; Tracked objects:
  1182 ;;		On entry : 0/0
  1183 ;;		On exit  : 0/0
  1184 ;;		Unchanged: 0/0
  1185 ;; Data sizes:     COMMON   BANK0   BANK1   BANK2
  1186 ;;      Params:         4       0       0       0
  1187 ;;      Locals:         4       0       0       0
  1188 ;;      Temps:          1       0       0       0
  1189 ;;      Totals:         9       0       0       0
  1190 ;;Total ram usage:        9 bytes
  1191 ;; Hardware stack levels used:    1
  1192 ;; Hardware stack levels required when called:    2
  1193 ;; This function calls:
  1194 ;;		Nothing
  1195 ;; This function is called by:
  1196 ;;		_main
  1197 ;; This function uses a non-reentrant model
  1198 ;;
  1199                           
  1200                           
  1201                           ;psect for function ___awdiv
  1202  007E                     ___awdiv:	
  1203                           
  1204                           ;incstack = 0
  1205                           ; Regs used in ___awdiv: [wreg+status,2+status,0]
  1206  007E  01F7               	clrf	___awdiv@sign
  1207  007F  1FF2               	btfss	___awdiv@divisor+1,7
  1208  0080  2888               	goto	l802
  1209  0081  09F1               	comf	___awdiv@divisor,f
  1210  0082  09F2               	comf	___awdiv@divisor+1,f
  1211  0083  0AF1               	incf	___awdiv@divisor,f
  1212  0084  1903               	skipnz
  1213  0085  0AF2               	incf	___awdiv@divisor+1,f
  1214  0086  01F7               	clrf	___awdiv@sign
  1215  0087  0AF7               	incf	___awdiv@sign,f
  1216  0088                     l802:	
  1217  0088  1FF4               	btfss	___awdiv@dividend+1,7
  1218  0089  2893               	goto	l808
  1219  008A  09F3               	comf	___awdiv@dividend,f
  1220  008B  09F4               	comf	___awdiv@dividend+1,f
  1221  008C  0AF3               	incf	___awdiv@dividend,f
  1222  008D  1903               	skipnz
  1223  008E  0AF4               	incf	___awdiv@dividend+1,f
  1224  008F  3001               	movlw	1
  1225  0090  00F5               	movwf	??___awdiv
  1226  0091  0875               	movf	??___awdiv,w
  1227  0092  06F7               	xorwf	___awdiv@sign,f
  1228  0093                     l808:	
  1229  0093  01F8               	clrf	___awdiv@quotient
  1230  0094  01F9               	clrf	___awdiv@quotient+1
  1231  0095  0871               	movf	___awdiv@divisor,w
  1232  0096  0472               	iorwf	___awdiv@divisor+1,w
  1233  0097  1903               	btfsc	3,2
  1234  0098  28C2               	goto	l830
  1235  0099  01F6               	clrf	___awdiv@counter
  1236  009A  0AF6               	incf	___awdiv@counter,f
  1237  009B                     l818:	
  1238  009B  1BF2               	btfsc	___awdiv@divisor+1,7
  1239  009C  28A7               	goto	l820
  1240  009D  3001               	movlw	1
  1241  009E                     u295:	
  1242  009E  35F1               	lslf	___awdiv@divisor,f
  1243  009F  0DF2               	rlf	___awdiv@divisor+1,f
  1244  00A0  0B89               	decfsz	9,f
  1245  00A1  289E               	goto	u295
  1246  00A2  3001               	movlw	1
  1247  00A3  00F5               	movwf	??___awdiv
  1248  00A4  0875               	movf	??___awdiv,w
  1249  00A5  07F6               	addwf	___awdiv@counter,f
  1250  00A6  289B               	goto	l818
  1251  00A7                     l820:	
  1252  00A7  3001               	movlw	1
  1253  00A8                     u315:	
  1254  00A8  35F8               	lslf	___awdiv@quotient,f
  1255  00A9  0DF9               	rlf	___awdiv@quotient+1,f
  1256  00AA  0B89               	decfsz	9,f
  1257  00AB  28A8               	goto	u315
  1258  00AC  0872               	movf	___awdiv@divisor+1,w
  1259  00AD  0274               	subwf	___awdiv@dividend+1,w
  1260  00AE  1D03               	skipz
  1261  00AF  28B2               	goto	u325
  1262  00B0  0871               	movf	___awdiv@divisor,w
  1263  00B1  0273               	subwf	___awdiv@dividend,w
  1264  00B2                     u325:	
  1265  00B2  1C03               	skipc
  1266  00B3  28B9               	goto	l826
  1267  00B4  0871               	movf	___awdiv@divisor,w
  1268  00B5  02F3               	subwf	___awdiv@dividend,f
  1269  00B6  0872               	movf	___awdiv@divisor+1,w
  1270  00B7  3BF4               	subwfb	___awdiv@dividend+1,f
  1271  00B8  1478               	bsf	___awdiv@quotient,0
  1272  00B9                     l826:	
  1273  00B9  3001               	movlw	1
  1274  00BA                     u335:	
  1275  00BA  36F2               	lsrf	___awdiv@divisor+1,f
  1276  00BB  0CF1               	rrf	___awdiv@divisor,f
  1277  00BC  0B89               	decfsz	9,f
  1278  00BD  28BA               	goto	u335
  1279  00BE  3001               	movlw	1
  1280  00BF  02F6               	subwf	___awdiv@counter,f
  1281  00C0  1D03               	btfss	3,2
  1282  00C1  28A7               	goto	l820
  1283  00C2                     l830:	
  1284  00C2  0877               	movf	___awdiv@sign,w
  1285  00C3  1903               	btfsc	3,2
  1286  00C4  28CA               	goto	l834
  1287  00C5  09F8               	comf	___awdiv@quotient,f
  1288  00C6  09F9               	comf	___awdiv@quotient+1,f
  1289  00C7  0AF8               	incf	___awdiv@quotient,f
  1290  00C8  1903               	skipnz
  1291  00C9  0AF9               	incf	___awdiv@quotient+1,f
  1292  00CA                     l834:	
  1293  00CA  0879               	movf	___awdiv@quotient+1,w
  1294  00CB  00F2               	movwf	?___awdiv+1
  1295  00CC  0878               	movf	___awdiv@quotient,w
  1296  00CD  00F1               	movwf	?___awdiv
  1297  00CE  0008               	return
  1298  00CF                     __end_of___awdiv:	
  1299                           
  1300                           	psect	text3
  1301  015C                     __ptext3:	
  1302 ;; *************** function _SYSTEM_Initialize *****************
  1303 ;; Defined at:
  1304 ;;		line 70 in file "mcc_generated_files/mcc.c"
  1305 ;; Parameters:    Size  Location     Type
  1306 ;;		None
  1307 ;; Auto vars:     Size  Location     Type
  1308 ;;		None
  1309 ;; Return value:  Size  Location     Type
  1310 ;;		None               void
  1311 ;; Registers used:
  1312 ;;		wreg, status,2, status,0, pclath, cstack
  1313 ;; Tracked objects:
  1314 ;;		On entry : 0/0
  1315 ;;		On exit  : 0/0
  1316 ;;		Unchanged: 0/0
  1317 ;; Data sizes:     COMMON   BANK0   BANK1   BANK2
  1318 ;;      Params:         0       0       0       0
  1319 ;;      Locals:         0       0       0       0
  1320 ;;      Temps:          0       0       0       0
  1321 ;;      Totals:         0       0       0       0
  1322 ;;Total ram usage:        0 bytes
  1323 ;; Hardware stack levels used:    1
  1324 ;; Hardware stack levels required when called:    3
  1325 ;; This function calls:
  1326 ;;		_OSCILLATOR_Initialize
  1327 ;;		_PIN_MANAGER_Initialize
  1328 ;;		_TMR0_Initialize
  1329 ;; This function is called by:
  1330 ;;		_main
  1331 ;; This function uses a non-reentrant model
  1332 ;;
  1333                           
  1334                           
  1335                           ;psect for function _SYSTEM_Initialize
  1336  015C                     _SYSTEM_Initialize:	
  1337                           
  1338                           ;mcc.c: 71: OSCILLATOR_Initialize();
  1339                           
  1340                           ;incstack = 0
  1341                           ; Regs used in _SYSTEM_Initialize: [wreg+status,2+status,0+pclath+cstack]
  1342  015C  2151               	fcall	_OSCILLATOR_Initialize
  1343                           
  1344                           ;mcc.c: 72: PIN_MANAGER_Initialize();
  1345  015D  2114               	fcall	_PIN_MANAGER_Initialize
  1346                           
  1347                           ;mcc.c: 73: TMR0_Initialize();
  1348  015E  213C               	fcall	_TMR0_Initialize
  1349  015F  0008               	return
  1350  0160                     __end_of_SYSTEM_Initialize:	
  1351                           
  1352                           	psect	text4
  1353  013C                     __ptext4:	
  1354 ;; *************** function _TMR0_Initialize *****************
  1355 ;; Defined at:
  1356 ;;		line 64 in file "mcc_generated_files/tmr0.c"
  1357 ;; Parameters:    Size  Location     Type
  1358 ;;		None
  1359 ;; Auto vars:     Size  Location     Type
  1360 ;;		None
  1361 ;; Return value:  Size  Location     Type
  1362 ;;		None               void
  1363 ;; Registers used:
  1364 ;;		wreg, status,2
  1365 ;; Tracked objects:
  1366 ;;		On entry : 0/0
  1367 ;;		On exit  : 0/0
  1368 ;;		Unchanged: 0/0
  1369 ;; Data sizes:     COMMON   BANK0   BANK1   BANK2
  1370 ;;      Params:         0       0       0       0
  1371 ;;      Locals:         0       0       0       0
  1372 ;;      Temps:          1       0       0       0
  1373 ;;      Totals:         1       0       0       0
  1374 ;;Total ram usage:        1 bytes
  1375 ;; Hardware stack levels used:    1
  1376 ;; Hardware stack levels required when called:    2
  1377 ;; This function calls:
  1378 ;;		Nothing
  1379 ;; This function is called by:
  1380 ;;		_SYSTEM_Initialize
  1381 ;; This function uses a non-reentrant model
  1382 ;;
  1383                           
  1384                           
  1385                           ;psect for function _TMR0_Initialize
  1386  013C                     _TMR0_Initialize:	
  1387                           
  1388                           ;tmr0.c: 68: OPTION_REG = (OPTION_REG & 0xC0) | 0xDF & 0x3F;
  1389                           
  1390                           ;incstack = 0
  1391                           ; Regs used in _TMR0_Initialize: [wreg+status,2]
  1392  013C  0021               	movlb	1	; select bank1
  1393  013D  0815               	movf	21,w	;volatile
  1394  013E  39C0               	andlw	192
  1395  013F  381F               	iorlw	31
  1396  0140  0095               	movwf	21	;volatile
  1397                           
  1398                           ;tmr0.c: 71: TMR0 = 0x83;
  1399  0141  3083               	movlw	131
  1400  0142  0020               	movlb	0	; select bank0
  1401  0143  0095               	movwf	21	;volatile
  1402                           
  1403                           ;tmr0.c: 74: timer0ReloadVal = 131;
  1404  0144  3083               	movlw	131
  1405  0145  00F1               	movwf	??_TMR0_Initialize
  1406  0146  0871               	movf	??_TMR0_Initialize,w
  1407  0147  00B7               	movwf	_timer0ReloadVal	;volatile
  1408                           
  1409                           ;tmr0.c: 77: INTCONbits.TMR0IF = 0;
  1410  0148  110B               	bcf	11,2	;volatile
  1411                           
  1412                           ;tmr0.c: 80: INTCONbits.TMR0IE = 1;
  1413  0149  168B               	bsf	11,5	;volatile
  1414  014A  0008               	return
  1415  014B                     __end_of_TMR0_Initialize:	
  1416                           
  1417                           	psect	text5
  1418  0114                     __ptext5:	
  1419 ;; *************** function _PIN_MANAGER_Initialize *****************
  1420 ;; Defined at:
  1421 ;;		line 50 in file "mcc_generated_files/pin_manager.c"
  1422 ;; Parameters:    Size  Location     Type
  1423 ;;		None
  1424 ;; Auto vars:     Size  Location     Type
  1425 ;;		None
  1426 ;; Return value:  Size  Location     Type
  1427 ;;		None               void
  1428 ;; Registers used:
  1429 ;;		wreg, status,2
  1430 ;; Tracked objects:
  1431 ;;		On entry : 0/0
  1432 ;;		On exit  : 0/0
  1433 ;;		Unchanged: 0/0
  1434 ;; Data sizes:     COMMON   BANK0   BANK1   BANK2
  1435 ;;      Params:         0       0       0       0
  1436 ;;      Locals:         0       0       0       0
  1437 ;;      Temps:          0       0       0       0
  1438 ;;      Totals:         0       0       0       0
  1439 ;;Total ram usage:        0 bytes
  1440 ;; Hardware stack levels used:    1
  1441 ;; Hardware stack levels required when called:    2
  1442 ;; This function calls:
  1443 ;;		Nothing
  1444 ;; This function is called by:
  1445 ;;		_SYSTEM_Initialize
  1446 ;; This function uses a non-reentrant model
  1447 ;;
  1448                           
  1449                           
  1450                           ;psect for function _PIN_MANAGER_Initialize
  1451  0114                     _PIN_MANAGER_Initialize:	
  1452                           
  1453                           ;pin_manager.c: 51: LATA = 0x00;
  1454                           
  1455                           ;incstack = 0
  1456                           ; Regs used in _PIN_MANAGER_Initialize: [wreg+status,2]
  1457  0114  0022               	movlb	2	; select bank2
  1458  0115  018C               	clrf	12	;volatile
  1459                           
  1460                           ;pin_manager.c: 52: TRISA = 0xE7;
  1461  0116  30E7               	movlw	231
  1462  0117  0021               	movlb	1	; select bank1
  1463  0118  008C               	movwf	12	;volatile
  1464                           
  1465                           ;pin_manager.c: 53: ANSELA = 0x03;
  1466  0119  3003               	movlw	3
  1467  011A  0023               	movlb	3	; select bank3
  1468  011B  008C               	movwf	12	;volatile
  1469                           
  1470                           ;pin_manager.c: 54: WPUA = 0x00;
  1471  011C  0024               	movlb	4	; select bank4
  1472  011D  018C               	clrf	12	;volatile
  1473                           
  1474                           ;pin_manager.c: 56: LATB = 0x00;
  1475  011E  0022               	movlb	2	; select bank2
  1476  011F  018D               	clrf	13	;volatile
  1477                           
  1478                           ;pin_manager.c: 57: TRISB = 0x00;
  1479  0120  0021               	movlb	1	; select bank1
  1480  0121  018D               	clrf	13	;volatile
  1481                           
  1482                           ;pin_manager.c: 58: ANSELB = 0x00;
  1483  0122  0023               	movlb	3	; select bank3
  1484  0123  018D               	clrf	13	;volatile
  1485                           
  1486                           ;pin_manager.c: 59: WPUB = 0x00;
  1487  0124  0024               	movlb	4	; select bank4
  1488  0125  018D               	clrf	13	;volatile
  1489                           
  1490                           ;pin_manager.c: 61: OPTION_REGbits.nWPUEN = 0x01;
  1491  0126  0021               	movlb	1	; select bank1
  1492  0127  1795               	bsf	21,7	;volatile
  1493                           
  1494                           ;pin_manager.c: 63: APFCON0 = 0x00;
  1495  0128  0022               	movlb	2	; select bank2
  1496  0129  019D               	clrf	29	;volatile
  1497                           
  1498                           ;pin_manager.c: 65: APFCON1 = 0x00;
  1499  012A  019E               	clrf	30	;volatile
  1500  012B  0008               	return
  1501  012C                     __end_of_PIN_MANAGER_Initialize:	
  1502                           
  1503                           	psect	text6
  1504  0151                     __ptext6:	
  1505 ;; *************** function _OSCILLATOR_Initialize *****************
  1506 ;; Defined at:
  1507 ;;		line 76 in file "mcc_generated_files/mcc.c"
  1508 ;; Parameters:    Size  Location     Type
  1509 ;;		None
  1510 ;; Auto vars:     Size  Location     Type
  1511 ;;		None
  1512 ;; Return value:  Size  Location     Type
  1513 ;;		None               void
  1514 ;; Registers used:
  1515 ;;		wreg, status,2
  1516 ;; Tracked objects:
  1517 ;;		On entry : 0/0
  1518 ;;		On exit  : 0/0
  1519 ;;		Unchanged: 0/0
  1520 ;; Data sizes:     COMMON   BANK0   BANK1   BANK2
  1521 ;;      Params:         0       0       0       0
  1522 ;;      Locals:         0       0       0       0
  1523 ;;      Temps:          0       0       0       0
  1524 ;;      Totals:         0       0       0       0
  1525 ;;Total ram usage:        0 bytes
  1526 ;; Hardware stack levels used:    1
  1527 ;; Hardware stack levels required when called:    2
  1528 ;; This function calls:
  1529 ;;		Nothing
  1530 ;; This function is called by:
  1531 ;;		_SYSTEM_Initialize
  1532 ;; This function uses a non-reentrant model
  1533 ;;
  1534                           
  1535                           
  1536                           ;psect for function _OSCILLATOR_Initialize
  1537  0151                     _OSCILLATOR_Initialize:	
  1538                           
  1539                           ;mcc.c: 78: OSCCON = 0x3A;
  1540                           
  1541                           ;incstack = 0
  1542                           ; Regs used in _OSCILLATOR_Initialize: [wreg+status,2]
  1543  0151  303A               	movlw	58
  1544  0152  0021               	movlb	1	; select bank1
  1545  0153  0099               	movwf	25	;volatile
  1546                           
  1547                           ;mcc.c: 80: OSCSTAT = 0x00;
  1548  0154  019A               	clrf	26	;volatile
  1549                           
  1550                           ;mcc.c: 82: OSCTUNE = 0x00;
  1551  0155  0198               	clrf	24	;volatile
  1552  0156  0008               	return
  1553  0157                     __end_of_OSCILLATOR_Initialize:	
  1554                           
  1555                           	psect	intentry
  1556  0004                     __pintentry:	
  1557 ;; *************** function _INTERRUPT_InterruptManager *****************
  1558 ;; Defined at:
  1559 ;;		line 52 in file "mcc_generated_files/interrupt_manager.c"
  1560 ;; Parameters:    Size  Location     Type
  1561 ;;		None
  1562 ;; Auto vars:     Size  Location     Type
  1563 ;;		None
  1564 ;; Return value:  Size  Location     Type
  1565 ;;		None               void
  1566 ;; Registers used:
  1567 ;;		wreg, status,2, status,0, pclath, cstack
  1568 ;; Tracked objects:
  1569 ;;		On entry : 0/0
  1570 ;;		On exit  : 0/0
  1571 ;;		Unchanged: 0/0
  1572 ;; Data sizes:     COMMON   BANK0   BANK1   BANK2
  1573 ;;      Params:         0       0       0       0
  1574 ;;      Locals:         0       0       0       0
  1575 ;;      Temps:          1       0       0       0
  1576 ;;      Totals:         1       0       0       0
  1577 ;;Total ram usage:        1 bytes
  1578 ;; Hardware stack levels used:    1
  1579 ;; Hardware stack levels required when called:    1
  1580 ;; This function calls:
  1581 ;;		_TMR0_ISR
  1582 ;; This function is called by:
  1583 ;;		Interrupt level 1
  1584 ;; This function uses a non-reentrant model
  1585 ;;
  1586                           
  1587  0004                     _INTERRUPT_InterruptManager:	
  1588                           
  1589                           ;incstack = 0
  1590                           ; Regs used in _INTERRUPT_InterruptManager: [wreg+status,2+status,0+pclath+cstack]
  1591  0004  147E               	bsf	126,0	;set compiler interrupt flag (level 1)
  1592  0005  3180               	pagesel	$
  1593  0006  0020               	movlb	0	; select bank0
  1594  0007  087F               	movf	127,w
  1595  0008  00F0               	movwf	??_INTERRUPT_InterruptManager
  1596                           
  1597                           ;interrupt_manager.c: 54: if (INTCONbits.TMR0IE == 1 && INTCONbits.TMR0IF == 1) {
  1598  0009  1A8B               	btfsc	11,5	;volatile
  1599  000A  1D0B               	btfss	11,2	;volatile
  1600  000B  280D               	goto	i1l57
  1601                           
  1602                           ;interrupt_manager.c: 55: TMR0_ISR();
  1603  000C  2157               	fcall	_TMR0_ISR
  1604  000D                     i1l57:	
  1605                           ;interrupt_manager.c: 56: } else {
  1606                           
  1607  000D  0870               	movf	??_INTERRUPT_InterruptManager,w
  1608  000E  0020               	movlb	0	; select bank0
  1609  000F  00FF               	movwf	127
  1610  0010  107E               	bcf	126,0	;clear compiler interrupt flag (level 1)
  1611  0011  0009               	retfie
  1612  0012                     __end_of_INTERRUPT_InterruptManager:	
  1613                           
  1614                           	psect	text8
  1615  0157                     __ptext8:	
  1616 ;; *************** function _TMR0_ISR *****************
  1617 ;; Defined at:
  1618 ;;		line 101 in file "mcc_generated_files/tmr0.c"
  1619 ;; Parameters:    Size  Location     Type
  1620 ;;		None
  1621 ;; Auto vars:     Size  Location     Type
  1622 ;;		None
  1623 ;; Return value:  Size  Location     Type
  1624 ;;		None               void
  1625 ;; Registers used:
  1626 ;;		wreg
  1627 ;; Tracked objects:
  1628 ;;		On entry : 0/0
  1629 ;;		On exit  : 0/0
  1630 ;;		Unchanged: 0/0
  1631 ;; Data sizes:     COMMON   BANK0   BANK1   BANK2
  1632 ;;      Params:         0       0       0       0
  1633 ;;      Locals:         0       0       0       0
  1634 ;;      Temps:          0       0       0       0
  1635 ;;      Totals:         0       0       0       0
  1636 ;;Total ram usage:        0 bytes
  1637 ;; Hardware stack levels used:    1
  1638 ;; This function calls:
  1639 ;;		Nothing
  1640 ;; This function is called by:
  1641 ;;		_INTERRUPT_InterruptManager
  1642 ;; This function uses a non-reentrant model
  1643 ;;
  1644                           
  1645                           
  1646                           ;psect for function _TMR0_ISR
  1647  0157                     _TMR0_ISR:	
  1648                           
  1649                           ;tmr0.c: 104: INTCONbits.TMR0IF = 0;
  1650                           
  1651                           ;incstack = 0
  1652                           ; Regs used in _TMR0_ISR: [wreg]
  1653  0157  110B               	bcf	11,2	;volatile
  1654                           
  1655                           ;tmr0.c: 106: TMR0 = timer0ReloadVal;
  1656  0158  0020               	movlb	0	; select bank0
  1657  0159  0837               	movf	_timer0ReloadVal,w	;volatile
  1658  015A  0095               	movwf	21	;volatile
  1659  015B  0008               	return
  1660  015C                     __end_of_TMR0_ISR:	
  1661  007E                     btemp	set	126	;btemp
  1662  007E                     int$flags	set	126
  1663  007E                     wtemp	set	126
  1664  007E                     wtemp0	set	126
  1665  0080                     wtemp1	set	128
  1666  0082                     wtemp2	set	130
  1667  0084                     wtemp3	set	132
  1668  0086                     wtemp4	set	134
  1669  0088                     wtemp5	set	136
  1670  007F                     wtemp6	set	127
  1671  007E                     ttemp	set	126
  1672  007E                     ttemp0	set	126
  1673  0081                     ttemp1	set	129
  1674  0084                     ttemp2	set	132
  1675  0087                     ttemp3	set	135
  1676  007F                     ttemp4	set	127
  1677  007E                     ltemp	set	126
  1678  007E                     ltemp0	set	126
  1679  0082                     ltemp1	set	130
  1680  0086                     ltemp2	set	134
  1681  0080                     ltemp3	set	128


Data Sizes:
    Strings     0
    Constant    0
    Data        16
    BSS         5
    Persistent  1
    Stack       0

Auto Spaces:
    Space          Size  Autos    Used
    COMMON           14     10      11
    BANK0            80      3      24
    BANK1            80      0       0
    BANK2            80      0       0

Pointer List with Targets:

    None.

Critical Paths under _main in COMMON

    _main->___awdiv
    _SYSTEM_Initialize->_TMR0_Initialize

Critical Paths under _INTERRUPT_InterruptManager in COMMON

    None.

Critical Paths under _main in BANK0

    None.

Critical Paths under _INTERRUPT_InterruptManager in BANK0

    None.

Critical Paths under _main in BANK1

    None.

Critical Paths under _INTERRUPT_InterruptManager in BANK1

    None.

Critical Paths under _main in BANK2

    None.

Critical Paths under _INTERRUPT_InterruptManager in BANK2

    None.

Call Graph Tables:

 ---------------------------------------------------------------------------------
 (Depth) Function   	        Calls       Base Space   Used Autos Params    Refs
 ---------------------------------------------------------------------------------
 (0) _main                                                 3     3      0     808
                                              0 BANK0      3     3      0
                  _SYSTEM_Initialize
                            ___awdiv
                            ___awmod
 ---------------------------------------------------------------------------------
 (1) ___awmod                                              7     3      4     402
                                              1 COMMON     7     3      4
 ---------------------------------------------------------------------------------
 (1) ___awdiv                                              9     5      4     406
                                              1 COMMON     9     5      4
 ---------------------------------------------------------------------------------
 (1) _SYSTEM_Initialize                                    0     0      0       0
              _OSCILLATOR_Initialize
             _PIN_MANAGER_Initialize
                    _TMR0_Initialize
 ---------------------------------------------------------------------------------
 (2) _TMR0_Initialize                                      1     1      0       0
                                              1 COMMON     1     1      0
 ---------------------------------------------------------------------------------
 (2) _PIN_MANAGER_Initialize                               0     0      0       0
 ---------------------------------------------------------------------------------
 (2) _OSCILLATOR_Initialize                                0     0      0       0
 ---------------------------------------------------------------------------------
 Estimated maximum stack depth 2
 ---------------------------------------------------------------------------------
 (Depth) Function   	        Calls       Base Space   Used Autos Params    Refs
 ---------------------------------------------------------------------------------
 (3) _INTERRUPT_InterruptManager                           1     1      0       0
                                              0 COMMON     1     1      0
                           _TMR0_ISR
 ---------------------------------------------------------------------------------
 (4) _TMR0_ISR                                             0     0      0       0
 ---------------------------------------------------------------------------------
 Estimated maximum stack depth 4
 ---------------------------------------------------------------------------------

 Call Graph Graphs:

 _main (ROOT)
   _SYSTEM_Initialize
     _OSCILLATOR_Initialize
     _PIN_MANAGER_Initialize
     _TMR0_Initialize
   ___awdiv
   ___awmod

 _INTERRUPT_InterruptManager (ROOT)
   _TMR0_ISR

 Address spaces:
Name               Size   Autos  Total    Cost      Usage
BIGRAM              F0      0       0       0        0.0%
EEDATA             100      0       0       0        0.0%
NULL                 0      0       0       0        0.0%
CODE                 0      0       0       0        0.0%
BITCOMMON            E      0       0       1        0.0%
BITSFR0              0      0       0       1        0.0%
SFR0                 0      0       0       1        0.0%
COMMON               E      A       B       2       78.6%
BITSFR1              0      0       0       2        0.0%
SFR1                 0      0       0       2        0.0%
BITSFR2              0      0       0       3        0.0%
SFR2                 0      0       0       3        0.0%
STACK                0      0       0       3        0.0%
BITSFR3              0      0       0       4        0.0%
SFR3                 0      0       0       4        0.0%
ABS                  0      0      23       4        0.0%
BITBANK0            50      0       0       5        0.0%
BITSFR4              0      0       0       5        0.0%
SFR4                 0      0       0       5        0.0%
BANK0               50      3      18       6       30.0%
BITSFR5              0      0       0       6        0.0%
SFR5                 0      0       0       6        0.0%
BITBANK1            50      0       0       7        0.0%
BITSFR6              0      0       0       7        0.0%
SFR6                 0      0       0       7        0.0%
BANK1               50      0       0       8        0.0%
BITSFR7              0      0       0       8        0.0%
SFR7                 0      0       0       8        0.0%
BITBANK2            50      0       0       9        0.0%
BITSFR8              0      0       0       9        0.0%
SFR8                 0      0       0       9        0.0%
BANK2               50      0       0      10        0.0%
BITSFR9              0      0       0      10        0.0%
SFR9                 0      0       0      10        0.0%
BITSFR10             0      0       0      11        0.0%
SFR10                0      0       0      11        0.0%
DATA                 0      0      23      11        0.0%
BITSFR11             0      0       0      12        0.0%
SFR11                0      0       0      12        0.0%
BITSFR12             0      0       0      13        0.0%
SFR12                0      0       0      13        0.0%
BITSFR13             0      0       0      14        0.0%
SFR13                0      0       0      14        0.0%
BITSFR14             0      0       0      15        0.0%
SFR14                0      0       0      15        0.0%
BITSFR15             0      0       0      16        0.0%
SFR15                0      0       0      16        0.0%
BITSFR16             0      0       0      17        0.0%
SFR16                0      0       0      17        0.0%
BITSFR17             0      0       0      18        0.0%
SFR17                0      0       0      18        0.0%
BITSFR18             0      0       0      19        0.0%
SFR18                0      0       0      19        0.0%
BITSFR19             0      0       0      20        0.0%
SFR19                0      0       0      20        0.0%
BITSFR20             0      0       0      21        0.0%
SFR20                0      0       0      21        0.0%
BITSFR21             0      0       0      22        0.0%
SFR21                0      0       0      22        0.0%
BITSFR22             0      0       0      23        0.0%
SFR22                0      0       0      23        0.0%
BITSFR23             0      0       0      24        0.0%
SFR23                0      0       0      24        0.0%
BITSFR24             0      0       0      25        0.0%
SFR24                0      0       0      25        0.0%
BITSFR25             0      0       0      26        0.0%
SFR25                0      0       0      26        0.0%
BITSFR26             0      0       0      27        0.0%
SFR26                0      0       0      27        0.0%
BITSFR27             0      0       0      28        0.0%
SFR27                0      0       0      28        0.0%
BITSFR28             0      0       0      29        0.0%
SFR28                0      0       0      29        0.0%
BITSFR29             0      0       0      30        0.0%
SFR29                0      0       0      30        0.0%
BITSFR30             0      0       0      31        0.0%
SFR30                0      0       0      31        0.0%
BITSFR31             0      0       0      32        0.0%
SFR31                0      0       0      32        0.0%


Microchip Technology PIC Macro Assembler V1.35 build -356382666 
Symbol Table                                                                                   Mon Dec  7 18:42:36 2015

                        __CFG_CP$OFF 0000                         ___awdiv@sign 0077  
                    _timer0ReloadVal 0037                                  l802 0088  
                                l820 00A7                                  l830 00C2  
                                l808 0093                                  l834 00CA  
                                l826 00B9                                  l818 009B  
                                l850 00E0                                  l860 00F2  
                                l846 00D9                                  l950 0053  
                                l942 002A                                  l872 010F  
                                l864 00FE                                  l960 005C  
                                l858 00E6                                  l868 0107  
                                l978 0074                                  _RA2 0062  
                                _RA3 0063                                  u315 00A8  
                                u325 00B2                                  u335 00BA  
                                u415 00F8                                  u425 00FF  
                       __CFG_CPD$OFF 0000                                  u295 009E  
                                u395 00E9                                  _Dec 0030  
                                _Uni 0033                         ___awmod@sign 0077  
                       __CFG_BORV$LO 0000                                  wreg 0009  
                       __CFG_IESO$ON 0000                         __CFG_LVP$OFF 0000  
                               _LATA 010C                                 _LATB 010D  
                               i1l57 000D                                 _TMR0 0015  
                               _WPUA 020C                                 _WPUB 020D  
                               _Rand 007A                         __CFG_WRT$OFF 0000  
                      __CFG_FCMEN$ON 0000                                 _main 0025  
                               fsr0h 0005                                 fsr1h 0007  
                               fsr0l 0004                                 indf1 0001  
                               fsr1l 0006                                 btemp 007E  
                      __CFG_BOREN$ON 0000                                 ltemp 007E  
                               start 0012                                 ttemp 007E  
                               wtemp 007E                        __CFG_MCLRE$ON 0000  
            __end_of_TMR0_Initialize 014B       __size_of_OSCILLATOR_Initialize 0006  
      __end_of_OSCILLATOR_Initialize 0157                                ?_main 0070  
                    __end_of___awdiv 00CF                        __CFG_WDTE$OFF 0000  
                    __end_of___awmod 0114                      ___awdiv@divisor 0071  
                              _LATA3 0863                                _LATA4 0864  
                    ___awdiv@counter 0076                                _PORTB 000D  
                              _TRISA 008C                                _TRISB 008D  
                              _Sleep 0032                     __end_of_TMR0_ISR 015C  
                              ltemp0 007E                                ltemp1 0082  
                              ltemp2 0086                                ltemp3 0080  
                              ttemp0 007E                                ttemp1 0081  
                              ttemp2 0084                                ttemp3 0087  
                              ttemp4 007F                                status 0003  
                              wtemp0 007E                                wtemp1 0080  
                              wtemp2 0082                                wtemp3 0084  
                              wtemp4 0086                                wtemp5 0088  
                              wtemp6 007F                      __initialization 0013  
                       __end_of_main 007E          ?_INTERRUPT_InterruptManager 0070  
                             ??_main 0034                       __CFG_PLLEN$OFF 0000  
                   ___awdiv@dividend 0073                               _ANSELA 018C  
                             _ANSELB 018D                               _OSCCON 0099  
                     __CFG_PWRTE$OFF 0000                            ??___awdiv 0075  
                     __CFG_STVREN$ON 0000                            ??___awmod 0075  
                   ?_TMR0_Initialize 0070                     ___awdiv@quotient 0078  
                    ___awmod@divisor 0071                      ___awmod@counter 0076  
                  _SYSTEM_Initialize 015C              __end_of__initialization 0022  
                 ?_SYSTEM_Initialize 0070                       __pcstackCOMMON 0070  
                       __pidataBANK0 012C                  ??_SYSTEM_Initialize 0072  
                          ?_TMR0_ISR 0070                       _OPTION_REGbits 0095  
          __end_of_SYSTEM_Initialize 0160                           __pbssBANK0 0030  
                         __pmaintext 0025                           ??_TMR0_ISR 0070  
                         __pintentry 0004                              _APFCON0 011D  
                            _APFCON1 011E                              _OSCSTAT 009A  
                            _OSCTUNE 0098                              ___awdiv 007E  
                            ___awmod 00CF                              __ptext1 00CF  
                            __ptext2 007E                              __ptext3 015C  
                            __ptext4 013C                              __ptext5 0114  
                            __ptext6 0151                              __ptext8 0157  
              _OSCILLATOR_Initialize 0151                     ___awmod@dividend 0073  
           ??_PIN_MANAGER_Initialize 0071           __size_of_SYSTEM_Initialize 0004  
               end_of_initialization 0022                              init_ram 014B  
                            initloop 014C                     __CFG_FOSC$INTOSC 0000  
                  __size_of_TMR0_ISR 0005               ?_OSCILLATOR_Initialize 0070  
                start_initialization 0013             __size_of_TMR0_Initialize 000F  
    __size_of_PIN_MANAGER_Initialize 0018                            _Rand_Disp 0031  
                        __pdataBANK0 0020                          __pbssCOMMON 007A  
                          ___latbits 0000                        __pcstackBANK0 0034  
                          __pnvBANK0 0037               _PIN_MANAGER_Initialize 0114  
                           ?___awdiv 0071                             ?___awmod 0071  
       ??_INTERRUPT_InterruptManager 0070                    ??_TMR0_Initialize 0071  
__size_of_INTERRUPT_InterruptManager 000E                             _TMR0_ISR 0157  
                           _LedTable 0020              ??_OSCILLATOR_Initialize 0071  
                   __size_of___awdiv 0051                     __size_of___awmod 0045  
                      __size_of_main 0059                             int$flags 007E  
 __end_of_INTERRUPT_InterruptManager 0012           _INTERRUPT_InterruptManager 0004  
                         _INTCONbits 000B                             intlevel1 0000  
            ?_PIN_MANAGER_Initialize 0070                    __CFG_CLKOUTEN$OFF 0000  
                         _OPTION_REG 0095                      _TMR0_Initialize 013C  
     __end_of_PIN_MANAGER_Initialize 012C  
